target datalayout = "e-m:e-p270:32:32-p271:32:32-p272:64:64-i64:64-i128:128-f80:128-n8:16:32:64-S128"
target triple = "x86_64-pc-linux-gnu"

%struct.pm_node_list = type { i64, i64, ptr }

; Function Attrs: alwaysinline nounwind
define internal ptr @memcpy.inline(ptr noalias nonnull %0, ptr noalias nonnull %1, i64 %2) #1 {
  %4 = alloca ptr, align 8
  %5 = alloca ptr, align 8
  %6 = alloca i64, align 8
  store ptr %0, ptr %4, align 8, !tbaa !24
  store ptr %1, ptr %5, align 8, !tbaa !24
  store i64 %2, ptr %6, align 8, !tbaa !19
  %7 = load ptr, ptr %4, align 8, !tbaa !24
  %8 = load ptr, ptr %5, align 8, !tbaa !24
  %9 = load i64, ptr %6, align 8, !tbaa !19
  %10 = load ptr, ptr %4, align 8, !tbaa !24
  %11 = call i64 @llvm.objectsize.i64.p0(ptr %10, i1 false, i1 true, i1 false)
  %12 = call ptr @__memcpy_chk(ptr noundef %7, ptr noundef %8, i64 noundef %9, i64 noundef %11) #9
  ret ptr %12
}

; Function Attrs: nounwind sspstrong uwtable
define internal zeroext i1 @pm_node_list_grow(ptr noundef %0, i64 noundef %1) #0 {
  %3 = alloca i1, align 1
  %4 = alloca ptr, align 8
  %5 = alloca i64, align 8
  %6 = alloca i64, align 8
  %7 = alloca i32, align 4
  %8 = alloca i64, align 8
  %9 = alloca i64, align 8
  %10 = alloca ptr, align 8
  store ptr %0, ptr %4, align 8, !tbaa !7
  store i64 %1, ptr %5, align 8, !tbaa !19
  call void @llvm.lifetime.start.p0(i64 8, ptr %6) #9
  %11 = load ptr, ptr %4, align 8, !tbaa !7
  %12 = getelementptr inbounds nuw %struct.pm_node_list, ptr %11, i32 0, i32 0
  %13 = load i64, ptr %12, align 8, !tbaa !18
  %14 = load i64, ptr %5, align 8, !tbaa !19
  %15 = add i64 %13, %14
  store i64 %15, ptr %6, align 8, !tbaa !19
  %16 = load i64, ptr %6, align 8, !tbaa !19
  %17 = load ptr, ptr %4, align 8, !tbaa !7
  %18 = getelementptr inbounds nuw %struct.pm_node_list, ptr %17, i32 0, i32 0
  %19 = load i64, ptr %18, align 8, !tbaa !18
  %20 = icmp ult i64 %16, %19
  br i1 %20, label %21, label %22

21:                                               ; preds = %2
  store i1 false, ptr %3, align 1
  store i32 1, ptr %7, align 4
  br label %84

22:                                               ; preds = %2
  %23 = load i64, ptr %6, align 8, !tbaa !19
  %24 = load ptr, ptr %4, align 8, !tbaa !7
  %25 = getelementptr inbounds nuw %struct.pm_node_list, ptr %24, i32 0, i32 1
  %26 = load i64, ptr %25, align 8, !tbaa !20
  %27 = icmp ult i64 %23, %26
  br i1 %27, label %28, label %29

28:                                               ; preds = %22
  store i1 true, ptr %3, align 1
  store i32 1, ptr %7, align 4
  br label %84

29:                                               ; preds = %22
  call void @llvm.lifetime.start.p0(i64 8, ptr %8) #9
  %30 = load ptr, ptr %4, align 8, !tbaa !7
  %31 = getelementptr inbounds nuw %struct.pm_node_list, ptr %30, i32 0, i32 1
  %32 = load i64, ptr %31, align 8, !tbaa !20
  %33 = icmp eq i64 %32, 0
  br i1 %33, label %34, label %35

34:                                               ; preds = %29
  br label %40

35:                                               ; preds = %29
  %36 = load ptr, ptr %4, align 8, !tbaa !7
  %37 = getelementptr inbounds nuw %struct.pm_node_list, ptr %36, i32 0, i32 1
  %38 = load i64, ptr %37, align 8, !tbaa !20
  %39 = mul i64 %38, 2
  br label %40

40:                                               ; preds = %35, %34
  %41 = phi i64 [ 4, %34 ], [ %39, %35 ]
  store i64 %41, ptr %8, align 8, !tbaa !19
  %42 = load i64, ptr %8, align 8, !tbaa !19
  %43 = load ptr, ptr %4, align 8, !tbaa !7
  %44 = getelementptr inbounds nuw %struct.pm_node_list, ptr %43, i32 0, i32 1
  %45 = load i64, ptr %44, align 8, !tbaa !20
  %46 = icmp ult i64 %42, %45
  br i1 %46, label %47, label %48

47:                                               ; preds = %40
  store i1 false, ptr %3, align 1
  store i32 1, ptr %7, align 4
  br label %83

48:                                               ; preds = %40
  br label %49

49:                                               ; preds = %64, %48
  %50 = load i64, ptr %6, align 8, !tbaa !19
  %51 = load i64, ptr %8, align 8, !tbaa !19
  %52 = icmp ugt i64 %50, %51
  br i1 %52, label %53, label %65

53:                                               ; preds = %49
  call void @llvm.lifetime.start.p0(i64 8, ptr %9) #9
  %54 = load i64, ptr %8, align 8, !tbaa !19
  %55 = mul i64 %54, 2
  store i64 %55, ptr %9, align 8, !tbaa !19
  %56 = load i64, ptr %9, align 8, !tbaa !19
  %57 = load i64, ptr %8, align 8, !tbaa !19
  %58 = icmp ult i64 %56, %57
  br i1 %58, label %59, label %60

59:                                               ; preds = %53
  store i1 false, ptr %3, align 1
  store i32 1, ptr %7, align 4
  br label %62

60:                                               ; preds = %53
  %61 = load i64, ptr %9, align 8, !tbaa !19
  store i64 %61, ptr %8, align 8, !tbaa !19
  store i32 0, ptr %7, align 4
  br label %62

62:                                               ; preds = %60, %59
  call void @llvm.lifetime.end.p0(i64 8, ptr %9) #9
  %63 = load i32, ptr %7, align 4
  switch i32 %63, label %83 [
    i32 0, label %64
  ]

64:                                               ; preds = %62
  br label %49, !llvm.loop !21

65:                                               ; preds = %49
  call void @llvm.lifetime.start.p0(i64 8, ptr %10) #9
  %66 = load ptr, ptr %4, align 8, !tbaa !7
  %67 = getelementptr inbounds nuw %struct.pm_node_list, ptr %66, i32 0, i32 2
  %68 = load ptr, ptr %67, align 8, !tbaa !14
  %69 = load i64, ptr %8, align 8, !tbaa !19
  %70 = mul i64 8, %69
  %71 = call ptr @realloc(ptr noundef %68, i64 noundef %70) #10
  store ptr %71, ptr %10, align 8, !tbaa !23
  %72 = load ptr, ptr %10, align 8, !tbaa !23
  %73 = icmp eq ptr %72, null
  br i1 %73, label %74, label %75

74:                                               ; preds = %65
  store i1 false, ptr %3, align 1
  store i32 1, ptr %7, align 4
  br label %82

75:                                               ; preds = %65
  %76 = load ptr, ptr %10, align 8, !tbaa !23
  %77 = load ptr, ptr %4, align 8, !tbaa !7
  %78 = getelementptr inbounds nuw %struct.pm_node_list, ptr %77, i32 0, i32 2
  store ptr %76, ptr %78, align 8, !tbaa !14
  %79 = load i64, ptr %8, align 8, !tbaa !19
  %80 = load ptr, ptr %4, align 8, !tbaa !7
  %81 = getelementptr inbounds nuw %struct.pm_node_list, ptr %80, i32 0, i32 1
  store i64 %79, ptr %81, align 8, !tbaa !20
  store i1 true, ptr %3, align 1
  store i32 1, ptr %7, align 4
  br label %82

82:                                               ; preds = %75, %74
  call void @llvm.lifetime.end.p0(i64 8, ptr %10) #9
  br label %83

83:                                               ; preds = %82, %62, %47
  call void @llvm.lifetime.end.p0(i64 8, ptr %8) #9
  br label %84

84:                                               ; preds = %83, %28, %21
  call void @llvm.lifetime.end.p0(i64 8, ptr %6) #9
  %85 = load i1, ptr %3, align 1
  ret i1 %85
}

; Function Attrs: nounwind sspstrong uwtable
define hidden void @pm_node_list_concat(ptr noundef %0, ptr noundef %1) #0 {
  %3 = alloca ptr, align 8
  %4 = alloca ptr, align 8
  store ptr %0, ptr %3, align 8, !tbaa !7
  store ptr %1, ptr %4, align 8, !tbaa !7
  %5 = load ptr, ptr %4, align 8, !tbaa !7
  %6 = getelementptr inbounds nuw %struct.pm_node_list, ptr %5, i32 0, i32 0
  %7 = load i64, ptr %6, align 8, !tbaa !18
  %8 = icmp ugt i64 %7, 0
  br i1 %8, label %9, label %38

9:                                                ; preds = %2
  %10 = load ptr, ptr %3, align 8, !tbaa !7
  %11 = load ptr, ptr %4, align 8, !tbaa !7
  %12 = getelementptr inbounds nuw %struct.pm_node_list, ptr %11, i32 0, i32 0
  %13 = load i64, ptr %12, align 8, !tbaa !18
  %14 = call zeroext i1 @pm_node_list_grow(ptr noundef %10, i64 noundef %13)
  br i1 %14, label %15, label %38

15:                                               ; preds = %9
  %16 = load ptr, ptr %3, align 8, !tbaa !7
  %17 = getelementptr inbounds nuw %struct.pm_node_list, ptr %16, i32 0, i32 2
  %18 = load ptr, ptr %17, align 8, !tbaa !14
  %19 = load ptr, ptr %3, align 8, !tbaa !7
  %20 = getelementptr inbounds nuw %struct.pm_node_list, ptr %19, i32 0, i32 0
  %21 = load i64, ptr %20, align 8, !tbaa !18
  %22 = getelementptr ptr, ptr %18, i64 %21
  %23 = load ptr, ptr %4, align 8, !tbaa !7
  %24 = getelementptr inbounds nuw %struct.pm_node_list, ptr %23, i32 0, i32 2
  %25 = load ptr, ptr %24, align 8, !tbaa !14
  %26 = load ptr, ptr %4, align 8, !tbaa !7
  %27 = getelementptr inbounds nuw %struct.pm_node_list, ptr %26, i32 0, i32 0
  %28 = load i64, ptr %27, align 8, !tbaa !18
  %29 = mul i64 %28, 8
  %30 = call ptr @memcpy.inline(ptr noundef %22, ptr noundef %25, i64 noundef %29) #9
  %31 = load ptr, ptr %4, align 8, !tbaa !7
  %32 = getelementptr inbounds nuw %struct.pm_node_list, ptr %31, i32 0, i32 0
  %33 = load i64, ptr %32, align 8, !tbaa !18
  %34 = load ptr, ptr %3, align 8, !tbaa !7
  %35 = getelementptr inbounds nuw %struct.pm_node_list, ptr %34, i32 0, i32 0
  %36 = load i64, ptr %35, align 8, !tbaa !18
  %37 = add i64 %36, %33
  store i64 %37, ptr %35, align 8, !tbaa !18
  br label %38

38:                                               ; preds = %15, %9, %2
  ret void
}