; Function Attrs: nounwind sspstrong uwtable
define hidden void @pm_node_list_concat(ptr noundef captures(none) %0, ptr noundef readonly captures(none) %1) local_unnamed_addr #0 {
  %3 = load i64, ptr %1, align 8, !tbaa !7
  %.not = icmp eq i64 %3, 0
  br i1 %.not, label %pm_node_list_grow.exit.thread, label %4

4:                                                ; preds = %2
  %5 = load i64, ptr %0, align 8, !tbaa !7
  %6 = add i64 %5, %3
  %7 = icmp ult i64 %6, %5
  br i1 %7, label %pm_node_list_grow.exit.thread, label %8

8:                                                ; preds = %4
  %9 = getelementptr inbounds nuw i8, ptr %0, i64 8
  %10 = load i64, ptr %9, align 8, !tbaa !14
  %11 = icmp ult i64 %6, %10
  br i1 %11, label %.pm_node_list_grow.exit_crit_edge, label %12

.pm_node_list_grow.exit_crit_edge:                ; preds = %8
  %.phi.trans.insert = getelementptr inbounds nuw i8, ptr %0, i64 16
  %.pre = load ptr, ptr %.phi.trans.insert, align 8, !tbaa !15
  br label %pm_node_list_grow.exit

12:                                               ; preds = %8
  %13 = icmp eq i64 %10, 0
  %14 = shl i64 %10, 1
  %spec.select.i = select i1 %13, i64 4, i64 %14
  %15 = icmp ult i64 %spec.select.i, %10
  br i1 %15, label %pm_node_list_grow.exit.thread, label %.preheader.i

.preheader.i:                                     ; preds = %12, %17
  %.025.i = phi i64 [ %19, %17 ], [ %spec.select.i, %12 ]
  %16 = icmp ugt i64 %6, %.025.i
  br i1 %16, label %17, label %20

17:                                               ; preds = %.preheader.i
  %18 = icmp sgt i64 %.025.i, -1
  %19 = shl nuw i64 %.025.i, 1
  br i1 %18, label %.preheader.i, label %pm_node_list_grow.exit.thread, !llvm.loop !16

20:                                               ; preds = %.preheader.i
  %21 = getelementptr inbounds nuw i8, ptr %0, i64 16
  %22 = load ptr, ptr %21, align 8, !tbaa !15
  %23 = shl i64 %.025.i, 3
  %24 = tail call ptr @realloc(ptr noundef %22, i64 noundef %23) #8
  %.not.i = icmp eq ptr %24, null
  br i1 %.not.i, label %pm_node_list_grow.exit.thread, label %25

25:                                               ; preds = %20
  store ptr %24, ptr %21, align 8, !tbaa !15
  store i64 %.025.i, ptr %9, align 8, !tbaa !14
  %.pre12 = load i64, ptr %0, align 8, !tbaa !7
  %.pre13 = load i64, ptr %1, align 8, !tbaa !7
  br label %pm_node_list_grow.exit

pm_node_list_grow.exit:                           ; preds = %.pm_node_list_grow.exit_crit_edge, %25
  %26 = phi i64 [ %3, %.pm_node_list_grow.exit_crit_edge ], [ %.pre13, %25 ]
  %27 = phi i64 [ %5, %.pm_node_list_grow.exit_crit_edge ], [ %.pre12, %25 ]
  %28 = phi ptr [ %.pre, %.pm_node_list_grow.exit_crit_edge ], [ %24, %25 ]
  %29 = getelementptr ptr, ptr %28, i64 %27
  %30 = getelementptr inbounds nuw i8, ptr %1, i64 16
  %31 = load ptr, ptr %30, align 8, !tbaa !15
  %32 = shl i64 %26, 3
  tail call void @llvm.memcpy.p0.p0.i64(ptr noundef nonnull align 1 %29, ptr noundef nonnull align 1 %31, i64 noundef %32, i1 noundef false) #9
  %33 = load i64, ptr %1, align 8, !tbaa !7
  %34 = load i64, ptr %0, align 8, !tbaa !7
  %35 = add i64 %34, %33
  store i64 %35, ptr %0, align 8, !tbaa !7
  br label %pm_node_list_grow.exit.thread

pm_node_list_grow.exit.thread:                    ; preds = %17, %20, %12, %4, %pm_node_list_grow.exit, %2
  ret void
}